(dp0
S'OriginalConfig'
p1
ccopy_reg
_reconstructor
p2
(cWMCore.Configuration
Configuration
p3
c__builtin__
object
p4
Ntp5
Rp6
(dp7
S'Site'
p8
g2
(cWMCore.Configuration
ConfigSection
p9
g4
Ntp10
Rp11
(dp12
S'_internal_skipChecks'
p13
I00
sS'_internal_documentation'
p14
S''
p15
sS'_internal_settings'
p16
c__builtin__
set
p17
((lp18
S'storageSite'
p19
atp20
Rp21
sS'_internal_name'
p22
g8
sS'_internal_docstrings'
p23
(dp24
sS'_internal_children'
p25
g17
((lp26
tp27
Rp28
sg19
S'T2_US_Purdue'
p29
sS'_internal_parent_ref'
p30
NsbsS'_internal_sections'
p31
(lp32
S'General'
p33
aS'JobType'
p34
aS'User'
p35
ag8
aS'Data'
p36
asg35
g2
(g9
g4
Ntp37
Rp38
(dp39
g13
I00
sg14
g15
sg16
g17
((lp40
tp41
Rp42
sg22
g35
sg23
(dp43
sg25
g17
((lp44
tp45
Rp46
sg30
Nsbsg33
g2
(g9
g4
Ntp47
Rp48
(dp49
g13
I00
sg14
g15
sg16
g17
((lp50
S'transferOutputs'
p51
aS'transferLogs'
p52
aS'requestName'
p53
atp54
Rp55
sg22
g33
sg23
(dp56
sg51
I01
sg25
g17
((lp57
tp58
Rp59
sg53
S'smu_run2017E'
p60
sg30
Nsg52
I00
sbsg36
g2
(g9
g4
Ntp61
Rp62
(dp63
S'inputDataset'
p64
S'/SingleMuon/Run2017E-UL2017_MiniAODv2-v1/MINIAOD'
p65
sg13
I00
sS'unitsPerJob'
p66
I100
sg14
g15
sg16
g17
((lp67
g64
aS'publication'
p68
ag66
aS'ignoreLocality'
p69
aS'splitting'
p70
aS'lumiMask'
p71
aS'outLFNDirBase'
p72
atp73
Rp74
sg69
I00
sg22
g36
sg70
S'LumiBased'
p75
sg23
(dp76
sg25
g17
((lp77
tp78
Rp79
sg72
S'/store/user/rchawla/crab/20230731/smu_run2017E'
p80
sg30
Nsg71
S'/depot/cms/top/chawla19/Topbjets/CMSSW_10_6_32/src/TopBJets/Configuration/python/Data/Run2017/Cert_294927-306462_13TeV_UL2017_Collisions17_GoldenJSON.txt'
p81
sg68
I00
sbsg34
g2
(g9
g4
Ntp82
Rp83
(dp84
g13
I00
sS'pyCfgParams'
p85
(lp86
S'era=2017'
p87
aS'samplename=data'
p88
aS'mode=smu'
p89
aS'datasetName=SingleMuon'
p90
aS'outputFile=smu_run2017E.root'
p91
asg14
g15
sg16
g17
((lp92
S'psetName'
p93
aS'pluginName'
p94
ag85
aS'allowUndistributedCMSSW'
p95
aS'maxMemoryMB'
p96
atp97
Rp98
sg22
g34
sg23
(dp99
sg94
S'Analysis'
p100
sg25
g17
((lp101
tp102
Rp103
sg95
I01
sg93
S'/depot/cms/top/chawla19/Topbjets/CMSSW_10_6_32/src/TopBJets/Configuration/analysis/common/test/ConfFile_cfg_2017_Data.py'
p104
sg30
Nsg96
I2500
sbsbsS'voGroup'
p105
g15
sS'Server'
p106
S'cmsweb.cern.ch'
p107
sS'instance'
p108
S'prod'
p109
sS'RequestName'
p110
V230801_022623:rchawla_crab_smu_run2017E
p111
sS'voRole'
p112
S'NULL'
p113
sS'Port'
p114
g15
s.